; Function Attrs: nounwind uwtable
define ptr @l_Lean_PrettyPrinter_Delaborator_SubExpr_withBoundedAppFn___rarg___lambda__2(ptr noundef %0, ptr noundef %1, ptr noundef %2, ptr noundef %3, ptr noundef %4) local_unnamed_addr #0 {
  %6 = tail call ptr @l_Lean_SubExpr_Pos_pushNaryFn(ptr noundef %0, ptr noundef %4) #5
  tail call void @lean_inc_heartbeat() #5
  %7 = tail call noalias ptr @mi_malloc_small(i64 noundef 48) #5
  %8 = icmp eq ptr %7, null
  br i1 %8, label %9, label %lean_alloc_closure.exit

9:                                                ; preds = %5
  tail call void @lean_internal_panic_out_of_memory() #6
  unreachable

lean_alloc_closure.exit:                          ; preds = %5
  %10 = getelementptr inbounds nuw i8, ptr %7, i64 4
  store i32 1, ptr %7, align 4, !tbaa !9
  store i32 -184549328, ptr %10, align 4
  %11 = getelementptr inbounds nuw i8, ptr %7, i64 8
  store ptr @l_Lean_PrettyPrinter_Delaborator_SubExpr_withBoundedAppFn___rarg___lambda__1___boxed, ptr %11, align 8, !tbaa !5
  %12 = getelementptr inbounds nuw i8, ptr %7, i64 16
  store i16 4, ptr %12, align 8, !tbaa !17
  %13 = getelementptr inbounds nuw i8, ptr %7, i64 18
  store i16 3, ptr %13, align 2, !tbaa !17
  %14 = getelementptr inbounds nuw i8, ptr %7, i64 24
  store ptr %0, ptr %14, align 8, !tbaa !5
  %15 = getelementptr inbounds nuw i8, ptr %7, i64 32
  store ptr %1, ptr %15, align 8, !tbaa !5
  %16 = getelementptr inbounds nuw i8, ptr %7, i64 40
  store ptr %6, ptr %16, align 8, !tbaa !5
  %17 = tail call ptr @lean_apply_3(ptr noundef %2, ptr noundef nonnull inttoptr (i64 1 to ptr), ptr noundef nonnull %7, ptr noundef %3) #5
  ret ptr %17
}